(lp0
(lp1
S'^'
p2
aS'>'
p3
aS'v'
p4
aS'v'
p5
aS'^'
p6
aS'>'
p7
aS'^'
p8
aS'>'
p9
aS'>'
p10
aS'>'
p11
aS'>'
p12
aS'v'
p13
aS'v'
p14
aS'v'
p15
aS'^'
p16
aS'>'
p17
aS'>'
p18
aS'>'
p19
aS'>'
p20
aS'>'
p21
aa(lp22
S'>'
p23
aS'<'
p24
aS'<'
p25
aS'<'
p26
aS'v'
p27
aS'^'
p28
aS'>'
p29
aS'^'
p30
aS'>'
p31
aS'^'
p32
aS'None'
p33
aS'v'
p34
aS'v'
p35
aS'v'
p36
aS'v'
p37
aS'>'
p38
aS'>'
p39
aS'>'
p40
aS'^'
p41
aS'^'
p42
aa(lp43
S'>'
p44
aS'<'
p45
aS'<'
p46
aS'v'
p47
aS'^'
p48
aS'>'
p49
aS'>'
p50
aS'<'
p51
aS'^'
p52
aS'<'
p53
aS'>'
p54
aS'v'
p55
aS'>'
p56
aS'<'
p57
aS'^'
p58
aS'>'
p59
aS'>'
p60
aS'^'
p61
aS'>'
p62
aS'^'
p63
aa(lp64
S'<'
p65
aS'<'
p66
aS'>'
p67
aS'v'
p68
aS'v'
p69
aS'^'
p70
aS'^'
p71
aS'<'
p72
aS'<'
p73
aS'>'
p74
aS'>'
p75
aS'<'
p76
aS'^'
p77
aS'<'
p78
aS'<'
p79
aS'v'
p80
aS'>'
p81
aS'v'
p82
aS'^'
p83
aS'^'
p84
aa(lp85
S'>'
p86
aS'>'
p87
aS'<'
p88
aS'<'
p89
aS'<'
p90
aS'v'
p91
aS'<'
p92
aS'<'
p93
aS'^'
p94
aS'^'
p95
aS'<'
p96
aS'^'
p97
aS'>'
p98
aS'v'
p99
aS'>'
p100
aS'>'
p101
aS'v'
p102
aS'v'
p103
aS'None'
p104
aS'>'
p105
aa(lp106
S'^'
p107
aS'>'
p108
aS'>'
p109
aS'<'
p110
aS'>'
p111
aS'>'
p112
aS'>'
p113
aS'>'
p114
aS'None'
p115
aS'>'
p116
aS'^'
p117
aS'>'
p118
aS'^'
p119
aS'^'
p120
aS'v'
p121
aS'v'
p122
aS'<'
p123
aS'None'
p124
aS'<'
p125
aS'>'
p126
aa(lp127
S'^'
p128
aS'^'
p129
aS'v'
p130
aS'^'
p131
aS'>'
p132
aS'^'
p133
aS'^'
p134
aS'^'
p135
aS'<'
p136
aS'<'
p137
aS'^'
p138
aS'^'
p139
aS'v'
p140
aS'v'
p141
aS'^'
p142
aS'v'
p143
aS'None'
p144
aS'<'
p145
aS'<'
p146
aS'v'
p147
aa(lp148
S'^'
p149
aS'<'
p150
aS'>'
p151
aS'^'
p152
aS'v'
p153
aS'v'
p154
aS'None'
p155
aS'None'
p156
aS'<'
p157
aS'^'
p158
aS'v'
p159
aS'v'
p160
aS'^'
p161
aS'>'
p162
aS'>'
p163
aS'None'
p164
aS'>'
p165
aS'<'
p166
aS'<'
p167
aS'<'
p168
aa(lp169
S'v'
p170
aS'v'
p171
aS'>'
p172
aS'>'
p173
aS'>'
p174
aS'<'
p175
aS'<'
p176
aS'v'
p177
aS'None'
p178
aS'^'
p179
aS'>'
p180
aS'>'
p181
aS'<'
p182
aS'v'
p183
aS'None'
p184
aS'>'
p185
aS'^'
p186
aS'^'
p187
aS'^'
p188
aS'>'
p189
aa(lp190
S'>'
p191
aS'>'
p192
aS'^'
p193
aS'None'
p194
aS'>'
p195
aS'>'
p196
aS'>'
p197
aS'>'
p198
aS'>'
p199
aS'None'
p200
aS'<'
p201
aS'v'
p202
aS'None'
p203
aS'None'
p204
aS'>'
p205
aS'>'
p206
aS'v'
p207
aS'>'
p208
aS'>'
p209
aS'>'
p210
aa(lp211
S'>'
p212
aS'^'
p213
aS'None'
p214
aS'>'
p215
aS'None'
p216
aS'<'
p217
aS'v'
p218
aS'v'
p219
aS'>'
p220
aS'<'
p221
aS'None'
p222
aS'None'
p223
aS'^'
p224
aS'>'
p225
aS'>'
p226
aS'^'
p227
aS'^'
p228
aS'<'
p229
aS'^'
p230
aS'^'
p231
aa(lp232
S'^'
p233
aS'None'
p234
aS'^'
p235
aS'^'
p236
aS'v'
p237
aS'None'
p238
aS'>'
p239
aS'v'
p240
aS'v'
p241
aS'^'
p242
aS'>'
p243
aS'v'
p244
aS'None'
p245
aS'^'
p246
aS'<'
p247
aS'v'
p248
aS'<'
p249
aS'^'
p250
aS'^'
p251
aS'<'
p252
aa(lp253
S'^'
p254
aS'None'
p255
aS'^'
p256
aS'>'
p257
aS'<'
p258
aS'<'
p259
aS'None'
p260
aS'v'
p261
aS'v'
p262
aS'>'
p263
aS'>'
p264
aS'^'
p265
aS'>'
p266
aS'>'
p267
aS'>'
p268
aS'v'
p269
aS'v'
p270
aS'<'
p271
aS'^'
p272
aS'^'
p273
aa(lp274
S'^'
p275
aS'<'
p276
aS'^'
p277
aS'v'
p278
aS'v'
p279
aS'None'
p280
aS'<'
p281
aS'<'
p282
aS'>'
p283
aS'>'
p284
aS'^'
p285
aS'None'
p286
aS'>'
p287
aS'v'
p288
aS'None'
p289
aS'>'
p290
aS'<'
p291
aS'<'
p292
aS'^'
p293
aS'<'
p294
aa(lp295
S'^'
p296
aS'None'
p297
aS'v'
p298
aS'>'
p299
aS'None'
p300
aS'>'
p301
aS'v'
p302
aS'>'
p303
aS'<'
p304
aS'<'
p305
aS'None'
p306
aS'<'
p307
aS'<'
p308
aS'<'
p309
aS'None'
p310
aS'v'
p311
aS'^'
p312
aS'^'
p313
aS'<'
p314
aS'>'
p315
aa(lp316
S'^'
p317
aS'None'
p318
aS'>'
p319
aS'>'
p320
aS'>'
p321
aS'None'
p322
aS'v'
p323
aS'v'
p324
aS'<'
p325
aS'None'
p326
aS'v'
p327
aS'<'
p328
aS'>'
p329
aS'<'
p330
aS'None'
p331
aS'None'
p332
aS'None'
p333
aS'None'
p334
aS'v'
p335
aS'^'
p336
aa(lp337
S'^'
p338
aS'None'
p339
aS'<'
p340
aS'>'
p341
aS'v'
p342
aS'<'
p343
aS'v'
p344
aS'v'
p345
aS'None'
p346
aS'^'
p347
aS'<'
p348
aS'v'
p349
aS'>'
p350
aS'>'
p351
aS'None'
p352
aS'^'
p353
aS'v'
p354
aS'v'
p355
aS'^'
p356
aS'>'
p357
aa(lp358
S'^'
p359
aS'None'
p360
aS'<'
p361
aS'>'
p362
aS'>'
p363
aS'v'
p364
aS'<'
p365
aS'None'
p366
aS'v'
p367
aS'^'
p368
aS'v'
p369
aS'>'
p370
aS'>'
p371
aS'>'
p372
aS'None'
p373
aS'v'
p374
aS'<'
p375
aS'<'
p376
aS'>'
p377
aS'>'
p378
aa(lp379
S'^'
p380
aS'None'
p381
aS'v'
p382
aS'^'
p383
aS'^'
p384
aS'v'
p385
aS'v'
p386
aS'None'
p387
aS'v'
p388
aS'<'
p389
aS'v'
p390
aS'>'
p391
aS'v'
p392
aS'v'
p393
aS'None'
p394
aS'^'
p395
aS'<'
p396
aS'v'
p397
aS'v'
p398
aS'<'
p399
aa(lp400
S'^'
p401
aS'None'
p402
aS'<'
p403
aS'>'
p404
aS'^'
p405
aS'v'
p406
aS'>'
p407
aS'>'
p408
aS'<'
p409
aS'>'
p410
aS'v'
p411
aS'>'
p412
aS'<'
p413
aS'>'
p414
aS'>'
p415
aS'^'
p416
aS'v'
p417
aS'<'
p418
aS'^'
p419
aS'>'
p420
aa.